target datalayout = "e-m:e-p270:32:32-p271:32:32-p272:64:64-i64:64-i128:128-f80:128-n8:16:32:64-S128"
target triple = "x86_64-pc-linux-gnu"

%struct._zend_phar_globals = type { %struct._zend_array, %struct._zend_array, ptr, %struct._zend_array, i32, ptr, i8, i8, i8, i8, i8, i8, i8, i8, i8, i8, i8, i8, ptr, ptr, ptr, ptr, ptr, ptr, ptr, ptr, ptr, ptr, ptr, ptr, ptr, ptr, ptr, ptr, ptr, ptr, ptr, ptr, ptr, ptr, ptr, i32, i8, ptr, i32, ptr, i32, ptr, i32, ptr, %struct._zend_array }
%struct._zend_array = type { %struct._zend_refcounted_h, %union.anon.0, i32, %union.anon.1, i32, i32, i32, i32, i64, ptr }
%struct._zend_refcounted_h = type { i32, %union.anon }
%union.anon = type { i32 }
%union.anon.0 = type { i32 }
%union.anon.1 = type { ptr }
%struct._zval_struct = type { %union._zend_value, %union.anon.3, %union.anon.6 }
%union._zend_value = type { i64 }
%union.anon.3 = type { i32 }
%union.anon.6 = type { i32 }
%struct.php_file_globals = type { i32, i64, i8, i64, ptr, ptr, ptr, ptr, ptr, ptr, ptr, i32, %struct.hostent, ptr, i64 }
%struct.hostent = type { ptr, ptr, i32, i32, ptr }
%struct._zend_execute_data = type { ptr, ptr, ptr, ptr, %struct._zval_struct, ptr, ptr, ptr, ptr }
%struct._zend_string = type { %struct._zend_refcounted_h, i64, i64, [1 x i8] }
%struct._php_stream = type { ptr, ptr, %struct._php_stream_filter_chain, %struct._php_stream_filter_chain, ptr, ptr, %struct._zval_struct, i16, [16 x i8], i32, ptr, ptr, ptr, ptr, i64, ptr, i64, i64, i64, i64, ptr }
%struct._php_stream_filter_chain = type { ptr, ptr, ptr }
%struct.anon.4 = type { i8, i8, %union.anon.5 }
%union.anon.5 = type { i16 }
%struct._zend_refcounted = type { %struct._zend_refcounted_h }

@phar_globals = external global %struct._zend_phar_globals, align 8
@cached_phars = external global %struct._zend_array, align 8
@.str.1 = private unnamed_addr constant [4 x i8] c"://\00", align 1
@.str.5 = private unnamed_addr constant [15 x i8] c"Stream-Context\00", align 1
@file_globals = external global %struct.php_file_globals, align 8
@.str.11 = private unnamed_addr constant [7 x i8] c"Ps|br!\00", align 1

; Function Attrs: alwaysinline nounwind uwtable
define internal i32 @zend_gc_addref(ptr noundef %0) #2 {
  %2 = alloca ptr, align 8
  store ptr %0, ptr %2, align 8, !tbaa !170
  br label %3

3:                                                ; preds = %1
  br label %4

4:                                                ; preds = %3
  %5 = load ptr, ptr %2, align 8, !tbaa !170
  %6 = getelementptr inbounds nuw %struct._zend_refcounted_h, ptr %5, i32 0, i32 0
  %7 = load i32, ptr %6, align 4, !tbaa !172
  %8 = add i32 %7, 1
  store i32 %8, ptr %6, align 4, !tbaa !172
  ret i32 %8
}

; Function Attrs: alwaysinline nounwind uwtable
define internal i32 @zend_gc_delref(ptr noundef %0) #2 {
  %2 = alloca ptr, align 8
  store ptr %0, ptr %2, align 8, !tbaa !170
  %3 = load ptr, ptr %2, align 8, !tbaa !170
  %4 = getelementptr inbounds nuw %struct._zend_refcounted_h, ptr %3, i32 0, i32 0
  %5 = load i32, ptr %4, align 4, !tbaa !172
  %6 = icmp ugt i32 %5, 0
  call void @llvm.assume(i1 %6)
  br label %7

7:                                                ; preds = %1
  br label %8

8:                                                ; preds = %7
  %9 = load ptr, ptr %2, align 8, !tbaa !170
  %10 = getelementptr inbounds nuw %struct._zend_refcounted_h, ptr %9, i32 0, i32 0
  %11 = load i32, ptr %10, align 4, !tbaa !172
  %12 = add i32 %11, -1
  store i32 %12, ptr %10, align 4, !tbaa !172
  ret i32 %12
}

; Function Attrs: alwaysinline nounwind uwtable
define internal i32 @zval_gc_flags(i32 noundef %0) #2 {
  %2 = alloca i32, align 4
  store i32 %0, ptr %2, align 4, !tbaa !79
  %3 = load i32, ptr %2, align 4, !tbaa !79
  %4 = lshr i32 %3, 0
  %5 = and i32 %4, 1008
  ret i32 %5
}

; Function Attrs: alwaysinline nounwind uwtable
define internal i32 @zval_addref_p(ptr noundef %0) #2 {
  %2 = alloca ptr, align 8
  store ptr %0, ptr %2, align 8, !tbaa !9
  %3 = load ptr, ptr %2, align 8, !tbaa !9
  %4 = getelementptr inbounds nuw %struct._zval_struct, ptr %3, i32 0, i32 1
  %5 = getelementptr inbounds nuw %struct.anon.4, ptr %4, i32 0, i32 1
  %6 = load i8, ptr %5, align 1, !tbaa !23
  %7 = zext i8 %6 to i32
  %8 = icmp ne i32 %7, 0
  call void @llvm.assume(i1 %8)
  %9 = load ptr, ptr %2, align 8, !tbaa !9
  %10 = getelementptr inbounds nuw %struct._zval_struct, ptr %9, i32 0, i32 0
  %11 = load ptr, ptr %10, align 8, !tbaa !23
  %12 = getelementptr inbounds nuw %struct._zend_refcounted, ptr %11, i32 0, i32 0
  %13 = call i32 @zend_gc_addref(ptr noundef %12)
  ret i32 %13
}

; Function Attrs: alwaysinline nounwind uwtable
define internal void @zend_string_release_ex(ptr noundef %0, i1 noundef zeroext %1) #2 {
  %3 = alloca ptr, align 8
  %4 = alloca i8, align 1
  store ptr %0, ptr %3, align 8, !tbaa !52
  %5 = zext i1 %1 to i8
  store i8 %5, ptr %4, align 1, !tbaa !76
  %6 = load ptr, ptr %3, align 8, !tbaa !52
  %7 = getelementptr inbounds nuw %struct._zend_string, ptr %6, i32 0, i32 0
  %8 = getelementptr inbounds nuw %struct._zend_refcounted_h, ptr %7, i32 0, i32 1
  %9 = load i32, ptr %8, align 4, !tbaa !23
  %10 = call i32 @zval_gc_flags(i32 noundef %9)
  %11 = and i32 %10, 64
  %12 = icmp ne i32 %11, 0
  br i1 %12, label %27, label %13

13:                                               ; preds = %2
  %14 = load ptr, ptr %3, align 8, !tbaa !52
  %15 = getelementptr inbounds nuw %struct._zend_string, ptr %14, i32 0, i32 0
  %16 = call i32 @zend_gc_delref(ptr noundef %15)
  %17 = icmp eq i32 %16, 0
  br i1 %17, label %18, label %26

18:                                               ; preds = %13
  %19 = load i8, ptr %4, align 1, !tbaa !76, !range !21, !noundef !22
  %20 = trunc i8 %19 to i1
  br i1 %20, label %21, label %23

21:                                               ; preds = %18
  %22 = load ptr, ptr %3, align 8, !tbaa !52
  call void @free(ptr noundef %22) #11
  br label %25

23:                                               ; preds = %18
  %24 = load ptr, ptr %3, align 8, !tbaa !52
  call void @_efree(ptr noundef %24)
  br label %25

25:                                               ; preds = %23, %21
  br label %26

26:                                               ; preds = %25, %13
  br label %27

27:                                               ; preds = %26, %2
  ret void
}

; Function Attrs: alwaysinline nounwind uwtable
define internal i32 @zend_hash_num_elements(ptr noundef %0) #2 {
  %2 = alloca ptr, align 8
  store ptr %0, ptr %2, align 8, !tbaa !74
  %3 = load ptr, ptr %2, align 8, !tbaa !74
  %4 = getelementptr inbounds nuw %struct._zend_array, ptr %3, i32 0, i32 5
  %5 = load i32, ptr %4, align 4, !tbaa !75
  ret i32 %5
}

; Function Attrs: nounwind uwtable
define hidden void @zif_phar_fopen(ptr noundef %0, ptr noundef %1) #0 {
  %3 = alloca ptr, align 8
  %4 = alloca ptr, align 8
  %5 = alloca ptr, align 8
  %6 = alloca ptr, align 8
  %7 = alloca i64, align 8
  %8 = alloca i8, align 1
  %9 = alloca ptr, align 8
  %10 = alloca ptr, align 8
  %11 = alloca ptr, align 8
  %12 = alloca ptr, align 8
  %13 = alloca i32, align 4
  %14 = alloca ptr, align 8
  store ptr %0, ptr %3, align 8, !tbaa !4
  store ptr %1, ptr %4, align 8, !tbaa !9
  call void @llvm.lifetime.start.p0(i64 8, ptr %5) #11
  call void @llvm.lifetime.start.p0(i64 8, ptr %6) #11
  call void @llvm.lifetime.start.p0(i64 8, ptr %7) #11
  call void @llvm.lifetime.start.p0(i64 1, ptr %8) #11
  store i8 0, ptr %8, align 1, !tbaa !76
  call void @llvm.lifetime.start.p0(i64 8, ptr %9) #11
  store ptr null, ptr %9, align 8, !tbaa !9
  %15 = load i8, ptr getelementptr inbounds nuw (%struct._zend_phar_globals, ptr @phar_globals, i32 0, i32 13), align 1, !tbaa !11, !range !21, !noundef !22
  %16 = trunc i8 %15 to i1
  br i1 %16, label %18, label %17

17:                                               ; preds = %2
  br label %125

18:                                               ; preds = %2
  %19 = load i32, ptr getelementptr inbounds nuw (%struct._zend_array, ptr getelementptr inbounds nuw (%struct._zend_phar_globals, ptr @phar_globals, i32 0, i32 1), i32 0, i32 1), align 8, !tbaa !23
  %20 = and i32 %19, 8
  %21 = icmp eq i32 %20, 0
  br i1 %21, label %22, label %30

22:                                               ; preds = %18
  %23 = call i32 @zend_hash_num_elements(ptr noundef getelementptr inbounds nuw (%struct._zend_phar_globals, ptr @phar_globals, i32 0, i32 1))
  %24 = icmp ne i32 %23, 0
  br i1 %24, label %30, label %25

25:                                               ; preds = %22
  %26 = load i32, ptr getelementptr inbounds nuw (%struct._zend_array, ptr @cached_phars, i32 0, i32 1), align 8, !tbaa !23
  %27 = and i32 %26, 8
  %28 = icmp eq i32 %27, 0
  br i1 %28, label %30, label %29

29:                                               ; preds = %25
  br label %125

30:                                               ; preds = %25, %22, %18
  %31 = load ptr, ptr %3, align 8, !tbaa !4
  %32 = getelementptr inbounds nuw %struct._zend_execute_data, ptr %31, i32 0, i32 4
  %33 = getelementptr inbounds nuw %struct._zval_struct, ptr %32, i32 0, i32 2
  %34 = load i32, ptr %33, align 4, !tbaa !23
  %35 = call i32 (i32, i32, ptr, ...) @zend_parse_parameters_ex(i32 noundef 2, i32 noundef %34, ptr noundef @.str.11, ptr noundef %5, ptr noundef %6, ptr noundef %7, ptr noundef %8, ptr noundef %9)
  %36 = icmp eq i32 %35, -1
  br i1 %36, label %37, label %38

37:                                               ; preds = %30
  br label %125

38:                                               ; preds = %30
  %39 = load i8, ptr %8, align 1, !tbaa !76, !range !21, !noundef !22
  %40 = trunc i8 %39 to i1
  br i1 %40, label %54, label %41

41:                                               ; preds = %38
  %42 = load ptr, ptr %5, align 8, !tbaa !52
  %43 = getelementptr inbounds nuw %struct._zend_string, ptr %42, i32 0, i32 3
  %44 = getelementptr inbounds [1 x i8], ptr %43, i64 0, i64 0
  %45 = load i8, ptr %44, align 8, !tbaa !23
  %46 = sext i8 %45 to i32
  %47 = icmp eq i32 %46, 47
  br i1 %47, label %124, label %48

48:                                               ; preds = %41
  %49 = load ptr, ptr %5, align 8, !tbaa !52
  %50 = getelementptr inbounds nuw %struct._zend_string, ptr %49, i32 0, i32 3
  %51 = getelementptr inbounds [1 x i8], ptr %50, i64 0, i64 0
  %52 = call ptr @strstr(ptr noundef %51, ptr noundef @.str.1) #12
  %53 = icmp ne ptr %52, null
  br i1 %53, label %124, label %54

54:                                               ; preds = %48, %38
  call void @llvm.lifetime.start.p0(i64 8, ptr %10) #11
  %55 = load ptr, ptr %5, align 8, !tbaa !52
  %56 = load i8, ptr %8, align 1, !tbaa !76, !range !21, !noundef !22
  %57 = trunc i8 %56 to i1
  %58 = call ptr @phar_get_name_for_relative_paths(ptr noundef %55, i1 noundef zeroext %57)
  store ptr %58, ptr %10, align 8, !tbaa !52
  %59 = load ptr, ptr %10, align 8, !tbaa !52
  %60 = icmp ne ptr %59, null
  br i1 %60, label %62, label %61

61:                                               ; preds = %54
  store i32 2, ptr %13, align 4
  br label %122

62:                                               ; preds = %54
  call void @llvm.lifetime.start.p0(i64 8, ptr %11) #11
  call void @llvm.lifetime.start.p0(i64 8, ptr %12) #11
  %63 = load ptr, ptr %9, align 8, !tbaa !9
  %64 = icmp ne ptr %63, null
  br i1 %64, label %65, label %69

65:                                               ; preds = %62
  %66 = load ptr, ptr %9, align 8, !tbaa !9
  %67 = call i32 @php_le_stream_context()
  %68 = call ptr @zend_fetch_resource_ex(ptr noundef %66, ptr noundef @.str.5, i32 noundef %67)
  br label %78

69:                                               ; preds = %62
  %70 = load ptr, ptr getelementptr inbounds nuw (%struct.php_file_globals, ptr @file_globals, i32 0, i32 7), align 8, !tbaa !58
  %71 = icmp ne ptr %70, null
  br i1 %71, label %72, label %74

72:                                               ; preds = %69
  %73 = load ptr, ptr getelementptr inbounds nuw (%struct.php_file_globals, ptr @file_globals, i32 0, i32 7), align 8, !tbaa !58
  br label %76

74:                                               ; preds = %69
  %75 = call ptr @php_stream_context_alloc()
  store ptr %75, ptr getelementptr inbounds nuw (%struct.php_file_globals, ptr @file_globals, i32 0, i32 7), align 8, !tbaa !58
  br label %76

76:                                               ; preds = %74, %72
  %77 = phi ptr [ %73, %72 ], [ %75, %74 ]
  br label %78

78:                                               ; preds = %76, %65
  %79 = phi ptr [ %68, %65 ], [ %77, %76 ]
  store ptr %79, ptr %12, align 8, !tbaa !55
  %80 = load ptr, ptr %10, align 8, !tbaa !52
  %81 = getelementptr inbounds nuw %struct._zend_string, ptr %80, i32 0, i32 3
  %82 = getelementptr inbounds [1 x i8], ptr %81, i64 0, i64 0
  %83 = load ptr, ptr %6, align 8, !tbaa !51
  %84 = load ptr, ptr %12, align 8, !tbaa !55
  %85 = call ptr @_php_stream_open_wrapper_ex(ptr noundef %82, ptr noundef %83, i32 noundef 8, ptr noundef null, ptr noundef %84)
  store ptr %85, ptr %11, align 8, !tbaa !62
  %86 = load ptr, ptr %10, align 8, !tbaa !52
  call void @zend_string_release_ex(ptr noundef %86, i1 noundef zeroext false)
  %87 = load ptr, ptr %11, align 8, !tbaa !62
  %88 = icmp eq ptr %87, null
  br i1 %88, label %89, label %98

89:                                               ; preds = %78
  br label %90

90:                                               ; preds = %89
  br label %91

91:                                               ; preds = %90
  %92 = load ptr, ptr %4, align 8, !tbaa !9
  %93 = getelementptr inbounds nuw %struct._zval_struct, ptr %92, i32 0, i32 1
  store i32 2, ptr %93, align 8, !tbaa !23
  br label %94

94:                                               ; preds = %91
  br label %95

95:                                               ; preds = %94
  store i32 1, ptr %13, align 4
  br label %121

96:                                               ; No predecessors!
  br label %97

97:                                               ; preds = %96
  br label %98

98:                                               ; preds = %97, %78
  br label %99

99:                                               ; preds = %98
  call void @llvm.lifetime.start.p0(i64 8, ptr %14) #11
  %100 = load ptr, ptr %4, align 8, !tbaa !9
  store ptr %100, ptr %14, align 8, !tbaa !9
  %101 = load ptr, ptr %11, align 8, !tbaa !62
  %102 = getelementptr inbounds nuw %struct._php_stream, ptr %101, i32 0, i32 10
  %103 = load ptr, ptr %102, align 8, !tbaa !64
  %104 = load ptr, ptr %14, align 8, !tbaa !9
  %105 = getelementptr inbounds nuw %struct._zval_struct, ptr %104, i32 0, i32 0
  store ptr %103, ptr %105, align 8, !tbaa !23
  %106 = load ptr, ptr %14, align 8, !tbaa !9
  %107 = getelementptr inbounds nuw %struct._zval_struct, ptr %106, i32 0, i32 1
  store i32 265, ptr %107, align 8, !tbaa !23
  call void @llvm.lifetime.end.p0(i64 8, ptr %14) #11
  br label %108

108:                                              ; preds = %99
  br label %109

109:                                              ; preds = %108
  %110 = load ptr, ptr %11, align 8, !tbaa !62
  %111 = getelementptr inbounds nuw %struct._php_stream, ptr %110, i32 0, i32 7
  %112 = load i16, ptr %111, align 8
  %113 = and i16 %112, -17
  %114 = or i16 %113, 16
  store i16 %114, ptr %111, align 8
  %115 = load ptr, ptr %9, align 8, !tbaa !9
  %116 = icmp ne ptr %115, null
  br i1 %116, label %117, label %120

117:                                              ; preds = %109
  %118 = load ptr, ptr %9, align 8, !tbaa !9
  %119 = call i32 @zval_addref_p(ptr noundef %118)
  br label %120

120:                                              ; preds = %117, %109
  store i32 1, ptr %13, align 4
  br label %121

121:                                              ; preds = %120, %95
  call void @llvm.lifetime.end.p0(i64 8, ptr %12) #11
  call void @llvm.lifetime.end.p0(i64 8, ptr %11) #11
  br label %122

122:                                              ; preds = %61, %121
  call void @llvm.lifetime.end.p0(i64 8, ptr %10) #11
  %123 = load i32, ptr %13, align 4
  switch i32 %123, label %129 [
    i32 2, label %125
  ]

124:                                              ; preds = %48, %41
  br label %125

125:                                              ; preds = %124, %122, %37, %29, %17
  %126 = load ptr, ptr getelementptr inbounds nuw (%struct._zend_phar_globals, ptr @phar_globals, i32 0, i32 18), align 8, !tbaa !81
  %127 = load ptr, ptr %3, align 8, !tbaa !4
  %128 = load ptr, ptr %4, align 8, !tbaa !9
  call void %126(ptr noundef %127, ptr noundef %128)
  store i32 1, ptr %13, align 4
  br label %129

129:                                              ; preds = %125, %122
  call void @llvm.lifetime.end.p0(i64 8, ptr %9) #11
  call void @llvm.lifetime.end.p0(i64 1, ptr %8) #11
  call void @llvm.lifetime.end.p0(i64 8, ptr %7) #11
  call void @llvm.lifetime.end.p0(i64 8, ptr %6) #11
  call void @llvm.lifetime.end.p0(i64 8, ptr %5) #11
  ret void
}