; Function Attrs: nounwind uwtable
define hidden void @zif_phar_fopen(ptr noundef %0, ptr noundef %1) #0 {
  %3 = alloca ptr, align 8
  %4 = alloca ptr, align 8
  %5 = alloca i64, align 8
  %6 = alloca i8, align 1
  %7 = alloca ptr, align 8
  call void @llvm.lifetime.start.p0(i64 8, ptr nonnull %3) #12
  call void @llvm.lifetime.start.p0(i64 8, ptr nonnull %4) #12
  call void @llvm.lifetime.start.p0(i64 8, ptr nonnull %5) #12
  call void @llvm.lifetime.start.p0(i64 1, ptr nonnull %6) #12
  store i8 0, ptr %6, align 1, !tbaa !65
  call void @llvm.lifetime.start.p0(i64 8, ptr nonnull %7) #12
  store ptr null, ptr %7, align 8, !tbaa !4
  %8 = load i8, ptr getelementptr inbounds nuw (i8, ptr @phar_globals, i64 199), align 1, !tbaa !9, !range !19, !noundef !20
  %9 = trunc nuw i8 %8 to i1
  br i1 %9, label %10, label %.critedge

10:                                               ; preds = %2
  %11 = load i32, ptr getelementptr inbounds nuw (i8, ptr @phar_globals, i64 64), align 8, !tbaa !21
  %12 = and i32 %11, 8
  %13 = icmp eq i32 %12, 0
  %14 = load i32, ptr getelementptr inbounds nuw (i8, ptr @phar_globals, i64 84), align 4
  %.not = icmp eq i32 %14, 0
  %or.cond = select i1 %13, i1 %.not, i1 false
  br i1 %or.cond, label %15, label %19

15:                                               ; preds = %10
  %16 = load i32, ptr getelementptr inbounds nuw (i8, ptr @cached_phars, i64 8), align 8, !tbaa !21
  %17 = and i32 %16, 8
  %18 = icmp eq i32 %17, 0
  br i1 %18, label %19, label %.critedge

19:                                               ; preds = %15, %10
  %20 = getelementptr inbounds nuw i8, ptr %0, i64 44
  %21 = load i32, ptr %20, align 4, !tbaa !21
  %22 = call i32 (i32, i32, ptr, ...) @zend_parse_parameters_ex(i32 noundef 2, i32 noundef %21, ptr noundef nonnull @.str.11, ptr noundef nonnull %3, ptr noundef nonnull %4, ptr noundef nonnull %5, ptr noundef nonnull %6, ptr noundef nonnull %7) #12
  %23 = icmp eq i32 %22, -1
  br i1 %23, label %.critedge, label %24

24:                                               ; preds = %19
  %25 = load i8, ptr %6, align 1, !tbaa !65, !range !19, !noundef !20
  %26 = trunc nuw i8 %25 to i1
  %.pre = load ptr, ptr %3, align 8, !tbaa !66
  br i1 %26, label %33, label %27

27:                                               ; preds = %24
  %28 = getelementptr inbounds nuw i8, ptr %.pre, i64 24
  %29 = load i8, ptr %28, align 8, !tbaa !21
  %30 = icmp eq i8 %29, 47
  br i1 %30, label %.critedge, label %31

31:                                               ; preds = %27
  %32 = call ptr @strstr(ptr noundef nonnull dereferenceable(1) %28, ptr noundef nonnull dereferenceable(1) @.str.1) #13
  %.not19 = icmp eq ptr %32, null
  br i1 %.not19, label %33, label %.critedge

33:                                               ; preds = %31, %24
  %34 = call fastcc ptr @phar_get_name_for_relative_paths(ptr noundef %.pre, i1 noundef zeroext %26)
  %.not20 = icmp eq ptr %34, null
  br i1 %.not20, label %.critedge, label %35

35:                                               ; preds = %33
  %36 = load ptr, ptr %7, align 8, !tbaa !4
  %.not21 = icmp eq ptr %36, null
  br i1 %.not21, label %40, label %37

37:                                               ; preds = %35
  %38 = call i32 @php_le_stream_context() #12
  %39 = call ptr @zend_fetch_resource_ex(ptr noundef nonnull %36, ptr noundef nonnull @.str.5, i32 noundef %38) #12
  br label %44

40:                                               ; preds = %35
  %41 = load ptr, ptr getelementptr inbounds nuw (i8, ptr @file_globals, i64 56), align 8, !tbaa !70
  %.not22 = icmp eq ptr %41, null
  br i1 %.not22, label %42, label %44

42:                                               ; preds = %40
  %43 = call ptr @php_stream_context_alloc() #12
  store ptr %43, ptr getelementptr inbounds nuw (i8, ptr @file_globals, i64 56), align 8, !tbaa !70
  br label %44

44:                                               ; preds = %40, %42, %37
  %45 = phi ptr [ %39, %37 ], [ %43, %42 ], [ %41, %40 ]
  %46 = getelementptr inbounds nuw i8, ptr %34, i64 24
  %47 = load ptr, ptr %4, align 8, !tbaa !50
  %48 = call ptr @_php_stream_open_wrapper_ex(ptr noundef nonnull %46, ptr noundef %47, i32 noundef 8, ptr noundef null, ptr noundef %45) #12
  %49 = getelementptr inbounds nuw i8, ptr %34, i64 4
  %50 = load i32, ptr %49, align 4, !tbaa !21
  %51 = and i32 %50, 64
  %.not.i = icmp eq i32 %51, 0
  br i1 %.not.i, label %52, label %zend_string_release_ex.exit

52:                                               ; preds = %44
  %53 = load i32, ptr %34, align 4, !tbaa !67
  %54 = icmp ne i32 %53, 0
  call void @llvm.assume(i1 %54)
  %55 = add i32 %53, -1
  store i32 %55, ptr %34, align 4, !tbaa !67
  %56 = icmp eq i32 %55, 0
  br i1 %56, label %57, label %zend_string_release_ex.exit

57:                                               ; preds = %52
  call void @_efree(ptr noundef nonnull %34) #12
  br label %zend_string_release_ex.exit

zend_string_release_ex.exit:                      ; preds = %44, %52, %57
  %58 = icmp eq ptr %48, null
  br i1 %58, label %59, label %61

59:                                               ; preds = %zend_string_release_ex.exit
  %60 = getelementptr inbounds nuw i8, ptr %1, i64 8
  store i32 2, ptr %60, align 8, !tbaa !21
  br label %77

61:                                               ; preds = %zend_string_release_ex.exit
  %62 = getelementptr inbounds nuw i8, ptr %48, i64 120
  %63 = load ptr, ptr %62, align 8, !tbaa !54
  store ptr %63, ptr %1, align 8, !tbaa !21
  %64 = getelementptr inbounds nuw i8, ptr %1, i64 8
  store i32 265, ptr %64, align 8, !tbaa !21
  %65 = getelementptr inbounds nuw i8, ptr %48, i64 96
  %66 = load i16, ptr %65, align 8
  %67 = or i16 %66, 16
  store i16 %67, ptr %65, align 8
  %68 = load ptr, ptr %7, align 8, !tbaa !4
  %.not23 = icmp eq ptr %68, null
  br i1 %.not23, label %77, label %69

69:                                               ; preds = %61
  %70 = getelementptr inbounds nuw i8, ptr %68, i64 9
  %71 = load i8, ptr %70, align 1, !tbaa !21
  %72 = icmp ne i8 %71, 0
  call void @llvm.assume(i1 %72)
  %73 = load ptr, ptr %68, align 8, !tbaa !21
  %74 = load i32, ptr %73, align 4, !tbaa !67
  %75 = add i32 %74, 1
  store i32 %75, ptr %73, align 4, !tbaa !67
  br label %77

.critedge:                                        ; preds = %33, %27, %31, %19, %15, %2
  %76 = load ptr, ptr getelementptr inbounds nuw (i8, ptr @phar_globals, i64 208), align 8, !tbaa !76
  call void %76(ptr noundef %0, ptr noundef %1) #12
  br label %77

77:                                               ; preds = %61, %69, %59, %.critedge
  call void @llvm.lifetime.end.p0(i64 8, ptr nonnull %7) #12
  call void @llvm.lifetime.end.p0(i64 1, ptr nonnull %6) #12
  call void @llvm.lifetime.end.p0(i64 8, ptr nonnull %5) #12
  call void @llvm.lifetime.end.p0(i64 8, ptr nonnull %4) #12
  call void @llvm.lifetime.end.p0(i64 8, ptr nonnull %3) #12
  ret void
}